; Function Attrs: mustprogress nofree norecurse nosync nounwind willreturn memory(argmem: readwrite) uwtable
define hidden void @_ZN4cvc58internal6theory11quantifiers5ieval11PatTermInfo10initializeENS0_12NodeTemplateILb0EEE(ptr nocapture noundef nonnull align 8 dereferenceable(232) %this, ptr nocapture noundef readonly %pattern) local_unnamed_addr #5 align 2 {
entry:
  %0 = load ptr, ptr %this, align 8
  %1 = load ptr, ptr %pattern, align 8
  %cmp.not.i = icmp eq ptr %0, %1
  br i1 %cmp.not.i, label %_ZN4cvc58internal12NodeTemplateILb0EEaSERKS2_.exit, label %if.then.i

if.then.i:                                        ; preds = %entry
  store ptr %1, ptr %this, align 8
  br label %_ZN4cvc58internal12NodeTemplateILb0EEaSERKS2_.exit

_ZN4cvc58internal12NodeTemplateILb0EEaSERKS2_.exit: ; preds = %entry, %if.then.i
  ret void
}